target datalayout = "e-m:e-p270:32:32-p271:32:32-p272:64:64-i64:64-i128:128-f80:128-n8:16:32:64-S128"
target triple = "x86_64-pc-linux-gnu"

%struct.timeval = type { i64, i64 }
%struct.slurmd_config = type { ptr, ptr, i32, [4096 x i8], ptr, ptr, ptr, ptr, i16, i16, i16, i16, ptr, i16, i64, i16, i16, i16, i16, i16, i16, i16, i16, i16, i16, i16, i64, i64, i32, i32, i16, ptr, ptr, ptr, i32, ptr, ptr, ptr, ptr, ptr, ptr, ptr, ptr, ptr, ptr, i32, ptr, ptr, i16, i32, i32, %struct.log_options_t, i32, i16, i64, i8, i8, i8, i8, i8, %union.pthread_mutex_t, i16, ptr, %union.pthread_cond_t, ptr, %union.pthread_cond_t, i8, i8, ptr, ptr }
%struct.log_options_t = type { i32, i32, i32, i8, i8, i8, i32 }
%union.pthread_mutex_t = type { %struct.__pthread_mutex_s }
%struct.__pthread_mutex_s = type { i32, i32, i32, i32, i32, i16, i16, %struct.__pthread_internal_list }
%struct.__pthread_internal_list = type { ptr, ptr }
%union.pthread_cond_t = type { %struct.__pthread_cond_s }
%struct.__pthread_cond_s = type { %union.__atomic_wide_counter, %union.__atomic_wide_counter, [2 x i32], [2 x i32], i32, i32, [2 x i32] }
%union.__atomic_wide_counter = type { i64 }

@conf = dso_local global ptr null, align 8
@plugin_type = dso_local constant [9 x i8] c"gpu/nvml\00", align 1
@init_pid = internal global i32 0, align 4
@.str.113 = private unnamed_addr constant [41 x i8] c"%s: %s: nvmlInit() took %ld microseconds\00", align 1
@__func__._nvml_init = private unnamed_addr constant [11 x i8] c"_nvml_init\00", align 1
@.str.114 = private unnamed_addr constant [30 x i8] c"Failed to initialize NVML: %s\00", align 1
@.str.115 = private unnamed_addr constant [38 x i8] c"%s: %s: Successfully initialized NVML\00", align 1

; Function Attrs: nounwind uwtable
define internal void @_nvml_init() #0 {
  %1 = alloca i32, align 4
  %2 = alloca i32, align 4
  %3 = alloca i32, align 4
  %4 = alloca %struct.timeval, align 8
  %5 = alloca %struct.timeval, align 8
  %6 = alloca [20 x i8], align 16
  %7 = alloca i64, align 8
  call void @llvm.lifetime.start.p0(i64 4, ptr %1) #7
  %8 = load ptr, ptr @conf, align 8
  %9 = getelementptr inbounds nuw %struct.slurmd_config, ptr %8, i32 0, i32 50
  %10 = load i32, ptr %9, align 8
  %11 = icmp ne i32 %10, 0
  br i1 %11, label %12, label %16

12:                                               ; preds = %0
  %13 = load ptr, ptr @conf, align 8
  %14 = getelementptr inbounds nuw %struct.slurmd_config, ptr %13, i32 0, i32 50
  %15 = load i32, ptr %14, align 8
  br label %18

16:                                               ; preds = %0
  %17 = call i32 @getpid() #7
  br label %18

18:                                               ; preds = %16, %12
  %19 = phi i32 [ %15, %12 ], [ %17, %16 ]
  store i32 %19, ptr %1, align 4
  call void @llvm.lifetime.start.p0(i64 4, ptr %2) #7
  %20 = load i32, ptr @init_pid, align 4
  %21 = load i32, ptr %1, align 4
  %22 = icmp eq i32 %20, %21
  br i1 %22, label %23, label %24

23:                                               ; preds = %18
  store i32 1, ptr %3, align 4
  br label %62

24:                                               ; preds = %18
  %25 = load i32, ptr %1, align 4
  store i32 %25, ptr @init_pid, align 4
  call void @llvm.lifetime.start.p0(i64 16, ptr %4) #7
  call void @llvm.lifetime.start.p0(i64 16, ptr %5) #7
  call void @llvm.lifetime.start.p0(i64 20, ptr %6) #7
  call void @llvm.memset.p0.i64(ptr align 16 %6, i8 0, i64 20, i1 false)
  call void @llvm.lifetime.start.p0(i64 8, ptr %7) #7
  %26 = call i32 @gettimeofday(ptr noundef %4, ptr noundef null) #7
  %27 = call i32 @nvmlInit_v2()
  store i32 %27, ptr %2, align 4
  br label %28

28:                                               ; preds = %24
  %29 = call i32 @gettimeofday(ptr noundef %5, ptr noundef null) #7
  %30 = getelementptr inbounds [20 x i8], ptr %6, i64 0, i64 0
  call void @slurm_diff_tv_str(ptr noundef %4, ptr noundef %5, ptr noundef %30, i32 noundef 20, ptr noundef null, i64 noundef 0, ptr noundef %7)
  br label %31

31:                                               ; preds = %28
  br label %32

32:                                               ; preds = %31
  br label %33

33:                                               ; preds = %32
  br label %34

34:                                               ; preds = %33
  %35 = call i32 @slurm_get_log_level()
  %36 = icmp sge i32 %35, 7
  br i1 %36, label %37, label %39

37:                                               ; preds = %34
  %38 = load i64, ptr %7, align 8
  call void (i32, ptr, ...) @slurm_log_var(i32 noundef 7, ptr noundef @.str.113, ptr noundef @plugin_type, ptr noundef @__func__._nvml_init, i64 noundef %38)
  br label %39

39:                                               ; preds = %37, %34
  br label %40

40:                                               ; preds = %39
  br label %41

41:                                               ; preds = %40
  br label %42

42:                                               ; preds = %41
  br label %43

43:                                               ; preds = %42
  %44 = load i32, ptr %2, align 4
  %45 = icmp ne i32 %44, 0
  br i1 %45, label %46, label %50

46:                                               ; preds = %43
  %47 = load i32, ptr %2, align 4
  %48 = call ptr @nvmlErrorString(i32 noundef %47)
  %49 = call i32 (ptr, ...) @slurm_error(ptr noundef @.str.114, ptr noundef %48)
  br label %61

50:                                               ; preds = %43
  br label %51

51:                                               ; preds = %50
  br label %52

52:                                               ; preds = %51
  %53 = call i32 @slurm_get_log_level()
  %54 = icmp sge i32 %53, 6
  br i1 %54, label %55, label %56

55:                                               ; preds = %52
  call void (i32, ptr, ...) @slurm_log_var(i32 noundef 6, ptr noundef @.str.115, ptr noundef @plugin_type, ptr noundef @__func__._nvml_init)
  br label %56

56:                                               ; preds = %55, %52
  br label %57

57:                                               ; preds = %56
  br label %58

58:                                               ; preds = %57
  br label %59

59:                                               ; preds = %58
  br label %60

60:                                               ; preds = %59
  br label %61

61:                                               ; preds = %60, %46
  call void @llvm.lifetime.end.p0(i64 8, ptr %7) #7
  call void @llvm.lifetime.end.p0(i64 20, ptr %6) #7
  call void @llvm.lifetime.end.p0(i64 16, ptr %5) #7
  call void @llvm.lifetime.end.p0(i64 16, ptr %4) #7
  store i32 0, ptr %3, align 4
  br label %62

62:                                               ; preds = %61, %23
  call void @llvm.lifetime.end.p0(i64 4, ptr %2) #7
  call void @llvm.lifetime.end.p0(i64 4, ptr %1) #7
  %63 = load i32, ptr %3, align 4
  switch i32 %63, label %65 [
    i32 0, label %64
    i32 1, label %64
  ]

64:                                               ; preds = %62, %62
  ret void

65:                                               ; preds = %62
  unreachable
}