; Function Attrs: nounwind uwtable
define internal fastcc void @_nvml_init() unnamed_addr #0 {
  %1 = alloca %struct.timeval, align 8
  %2 = alloca %struct.timeval, align 8
  %3 = alloca [20 x i8], align 16
  %4 = alloca i64, align 8
  %5 = load ptr, ptr @conf, align 8
  %6 = getelementptr inbounds nuw i8, ptr %5, i64 4384
  %7 = load i32, ptr %6, align 8
  %.not = icmp eq i32 %7, 0
  br i1 %.not, label %8, label %10

8:                                                ; preds = %0
  %9 = tail call i32 @getpid() #12
  br label %10

10:                                               ; preds = %0, %8
  %11 = phi i32 [ %9, %8 ], [ %7, %0 ]
  %12 = load i32, ptr @init_pid, align 4
  %13 = icmp eq i32 %12, %11
  br i1 %13, label %31, label %14

14:                                               ; preds = %10
  store i32 %11, ptr @init_pid, align 4
  call void @llvm.lifetime.start.p0(i64 16, ptr nonnull %1) #12
  call void @llvm.lifetime.start.p0(i64 16, ptr nonnull %2) #12
  call void @llvm.lifetime.start.p0(i64 20, ptr nonnull %3) #12
  call void @llvm.memset.p0.i64(ptr noundef nonnull align 16 dereferenceable(20) %3, i8 0, i64 20, i1 false)
  call void @llvm.lifetime.start.p0(i64 8, ptr nonnull %4) #12
  %15 = call i32 @gettimeofday(ptr noundef nonnull %1, ptr noundef null) #12
  %16 = tail call i32 @nvmlInit_v2() #12
  %17 = call i32 @gettimeofday(ptr noundef nonnull %2, ptr noundef null) #12
  call void @slurm_diff_tv_str(ptr noundef nonnull %1, ptr noundef nonnull %2, ptr noundef nonnull %3, i32 noundef 20, ptr noundef null, i64 noundef 0, ptr noundef nonnull %4) #12
  %18 = call i32 @slurm_get_log_level() #12
  %19 = icmp sgt i32 %18, 6
  br i1 %19, label %20, label %22

20:                                               ; preds = %14
  %21 = load i64, ptr %4, align 8
  call void (i32, ptr, ...) @slurm_log_var(i32 noundef 7, ptr noundef nonnull @.str.113, ptr noundef nonnull @plugin_type, ptr noundef nonnull @__func__._nvml_init, i64 noundef %21) #12
  br label %22

22:                                               ; preds = %20, %14
  %.not6 = icmp eq i32 %16, 0
  br i1 %.not6, label %26, label %23

23:                                               ; preds = %22
  %24 = call ptr @nvmlErrorString(i32 noundef %16) #12
  %25 = call i32 (ptr, ...) @slurm_error(ptr noundef nonnull @.str.114, ptr noundef %24) #12
  br label %30

26:                                               ; preds = %22
  %27 = call i32 @slurm_get_log_level() #12
  %28 = icmp sgt i32 %27, 5
  br i1 %28, label %29, label %30

29:                                               ; preds = %26
  call void (i32, ptr, ...) @slurm_log_var(i32 noundef 6, ptr noundef nonnull @.str.115, ptr noundef nonnull @plugin_type, ptr noundef nonnull @__func__._nvml_init) #12
  br label %30

30:                                               ; preds = %26, %29, %23
  call void @llvm.lifetime.end.p0(i64 8, ptr nonnull %4) #12
  call void @llvm.lifetime.end.p0(i64 20, ptr nonnull %3) #12
  call void @llvm.lifetime.end.p0(i64 16, ptr nonnull %2) #12
  call void @llvm.lifetime.end.p0(i64 16, ptr nonnull %1) #12
  br label %31

31:                                               ; preds = %10, %30
  ret void
}